; Function Attrs: nofree nosync nounwind memory(readwrite, inaccessiblemem: none) uwtable
define internal fastcc void @set_empty_status_check_trav(ptr noundef readonly captures(none) %0, ptr noundef nonnull %1) unnamed_addr #15 {
  br label %tailrecurse

tailrecurse:                                      ; preds = %tailrecurse.backedge, %2
  %.tr = phi ptr [ %0, %2 ], [ %.tr.be, %tailrecurse.backedge ]
  %3 = load i32, ptr %.tr, align 8, !tbaa !20
  switch i32 %3, label %.loopexit [
    i32 7, label %.preheader84
    i32 8, label %.preheader84
    i32 6, label %9
    i32 4, label %tailrecurse.backedge.sink.split
    i32 5, label %15
    i32 3, label %30
  ]

.preheader84:                                     ; preds = %tailrecurse, %tailrecurse
  br label %4

4:                                                ; preds = %.preheader84, %4
  %.0 = phi ptr [ %8, %4 ], [ %.tr, %.preheader84 ]
  %5 = getelementptr inbounds nuw i8, ptr %.0, i64 16
  %6 = load ptr, ptr %5, align 8, !tbaa !20
  tail call fastcc void @set_empty_status_check_trav(ptr noundef %6, ptr noundef %1)
  %7 = getelementptr inbounds nuw i8, ptr %.0, i64 24
  %8 = load ptr, ptr %7, align 8, !tbaa !20
  %.not62 = icmp eq ptr %8, null
  br i1 %.not62, label %.loopexit, label %4, !llvm.loop !249

9:                                                ; preds = %tailrecurse
  %10 = getelementptr inbounds nuw i8, ptr %.tr, i64 24
  %11 = load i32, ptr %10, align 8, !tbaa !155
  %12 = icmp slt i32 %11, 16
  br i1 %12, label %tailrecurse.backedge.sink.split, label %.loopexit

tailrecurse.backedge.sink.split:                  ; preds = %9, %tailrecurse
  %13 = getelementptr inbounds nuw i8, ptr %.tr, i64 16
  %14 = load ptr, ptr %13, align 8, !tbaa !20
  br label %tailrecurse.backedge

tailrecurse.backedge:                             ; preds = %tailrecurse.backedge.sink.split, %27
  %.tr.be = phi ptr [ %29, %27 ], [ %14, %tailrecurse.backedge.sink.split ]
  br label %tailrecurse

15:                                               ; preds = %tailrecurse
  %16 = getelementptr inbounds nuw i8, ptr %.tr, i64 16
  %17 = load ptr, ptr %16, align 8, !tbaa !20
  %.not59 = icmp eq ptr %17, null
  br i1 %.not59, label %19, label %18

18:                                               ; preds = %15
  tail call fastcc void @set_empty_status_check_trav(ptr noundef nonnull %17, ptr noundef %1)
  br label %19

19:                                               ; preds = %18, %15
  %20 = getelementptr inbounds nuw i8, ptr %.tr, i64 24
  %21 = load i32, ptr %20, align 8, !tbaa !98
  %22 = icmp eq i32 %21, 3
  br i1 %22, label %23, label %.loopexit

23:                                               ; preds = %19
  %24 = getelementptr inbounds nuw i8, ptr %.tr, i64 32
  %25 = load ptr, ptr %24, align 8, !tbaa !20
  %.not60 = icmp eq ptr %25, null
  br i1 %.not60, label %27, label %26

26:                                               ; preds = %23
  tail call fastcc void @set_empty_status_check_trav(ptr noundef nonnull %25, ptr noundef %1)
  br label %27

27:                                               ; preds = %26, %23
  %28 = getelementptr inbounds nuw i8, ptr %.tr, i64 40
  %29 = load ptr, ptr %28, align 8, !tbaa !20
  %.not61 = icmp eq ptr %29, null
  br i1 %.not61, label %.loopexit, label %tailrecurse.backedge

30:                                               ; preds = %tailrecurse
  %31 = getelementptr inbounds nuw i8, ptr %1, i64 224
  %32 = load ptr, ptr %31, align 8, !tbaa !89
  %.not = icmp eq ptr %32, null
  %33 = getelementptr inbounds nuw i8, ptr %1, i64 96
  %34 = select i1 %.not, ptr %33, ptr %32
  %35 = getelementptr inbounds nuw i8, ptr %.tr, i64 48
  %36 = load ptr, ptr %35, align 8, !tbaa !131
  %.not55 = icmp eq ptr %36, null
  %37 = getelementptr inbounds nuw i8, ptr %.tr, i64 20
  %38 = select i1 %.not55, ptr %37, ptr %36
  %39 = getelementptr inbounds nuw i8, ptr %.tr, i64 16
  %40 = load i32, ptr %39, align 8, !tbaa !130
  %41 = icmp sgt i32 %40, 0
  br i1 %41, label %.lr.ph, label %.loopexit

.lr.ph:                                           ; preds = %30, %is_ancestor_node.exit
  %42 = phi i32 [ %70, %is_ancestor_node.exit ], [ %40, %30 ]
  %indvars.iv = phi i64 [ %indvars.iv.next, %is_ancestor_node.exit ], [ 0, %30 ]
  %43 = getelementptr inbounds nuw i32, ptr %38, i64 %indvars.iv
  %44 = load i32, ptr %43, align 4, !tbaa !4
  %45 = sext i32 %44 to i64
  %46 = getelementptr inbounds %struct.MemEnv, ptr %34, i64 %45, i32 1
  %47 = load ptr, ptr %46, align 8, !tbaa !248
  %.not56 = icmp eq ptr %47, null
  br i1 %.not56, label %is_ancestor_node.exit, label %.preheader

.preheader:                                       ; preds = %.lr.ph, %50
  %.04.i = phi ptr [ %49, %50 ], [ %.tr, %.lr.ph ]
  %48 = getelementptr inbounds nuw i8, ptr %.04.i, i64 8
  %49 = load ptr, ptr %48, align 8, !tbaa !20
  %.not.i = icmp eq ptr %49, null
  br i1 %.not.i, label %52, label %50

50:                                               ; preds = %.preheader
  %51 = icmp eq ptr %49, %47
  br i1 %51, label %is_ancestor_node.exit, label %.preheader, !llvm.loop !250

52:                                               ; preds = %.preheader
  %53 = icmp sgt i32 %44, 31
  %.not58 = icmp eq i32 %44, 0
  %or.cond = or i1 %53, %.not58
  br i1 %or.cond, label %59, label %54

54:                                               ; preds = %52
  %55 = shl nuw i32 1, %44
  %56 = getelementptr inbounds nuw i8, ptr %47, i64 60
  %57 = load i32, ptr %56, align 4, !tbaa !20
  %58 = or i32 %57, %55
  store i32 %58, ptr %56, align 4, !tbaa !20
  br label %59

59:                                               ; preds = %54, %52
  %60 = getelementptr inbounds nuw i8, ptr %47, i64 4
  %61 = load i32, ptr %60, align 4, !tbaa !20
  %62 = or i32 %61, 1048576
  store i32 %62, ptr %60, align 4, !tbaa !20
  %63 = load i32, ptr %43, align 4, !tbaa !4
  %64 = sext i32 %63 to i64
  %65 = getelementptr inbounds %struct.MemEnv, ptr %34, i64 %64
  %66 = load ptr, ptr %65, align 8, !tbaa !205
  %67 = getelementptr inbounds nuw i8, ptr %66, i64 4
  %68 = load i32, ptr %67, align 4, !tbaa !20
  %69 = or i32 %68, 1048576
  store i32 %69, ptr %67, align 4, !tbaa !20
  %.pre = load i32, ptr %39, align 8, !tbaa !130
  br label %is_ancestor_node.exit

is_ancestor_node.exit:                            ; preds = %50, %59, %.lr.ph
  %70 = phi i32 [ %.pre, %59 ], [ %42, %.lr.ph ], [ %42, %50 ]
  %indvars.iv.next = add nuw nsw i64 %indvars.iv, 1
  %71 = sext i32 %70 to i64
  %72 = icmp slt i64 %indvars.iv.next, %71
  br i1 %72, label %.lr.ph, label %.loopexit, !llvm.loop !251

.loopexit:                                        ; preds = %19, %27, %9, %tailrecurse, %is_ancestor_node.exit, %4, %30
  ret void
}